target datalayout = "e-m:e-p270:32:32-p271:32:32-p272:64:64-i64:64-i128:128-f80:128-n8:16:32:64-S128"
target triple = "x86_64-pc-linux-gnu"

@bio_err = external global ptr, align 8
@.str.66 = private unnamed_addr constant [4 x i8] c"DHX\00", align 1
@.str.74 = private unnamed_addr constant [2 x i8] c"p\00", align 1
@.str.75 = private unnamed_addr constant [2 x i8] c"q\00", align 1
@.str.76 = private unnamed_addr constant [2 x i8] c"g\00", align 1
@.str.77 = private unnamed_addr constant [36 x i8] c"Error, failed to set DH parameters\0A\00", align 1

; Function Attrs: nounwind uwtable
define internal ptr @dsa_to_dh(ptr noundef %0) #0 {
  %2 = alloca ptr, align 8
  %3 = alloca ptr, align 8
  %4 = alloca ptr, align 8
  %5 = alloca ptr, align 8
  %6 = alloca ptr, align 8
  %7 = alloca ptr, align 8
  %8 = alloca ptr, align 8
  %9 = alloca ptr, align 8
  store ptr %0, ptr %2, align 8, !tbaa !13
  call void @llvm.lifetime.start.p0(i64 8, ptr %3) #4
  store ptr null, ptr %3, align 8, !tbaa !28
  call void @llvm.lifetime.start.p0(i64 8, ptr %4) #4
  store ptr null, ptr %4, align 8, !tbaa !30
  call void @llvm.lifetime.start.p0(i64 8, ptr %5) #4
  store ptr null, ptr %5, align 8, !tbaa !32
  call void @llvm.lifetime.start.p0(i64 8, ptr %6) #4
  store ptr null, ptr %6, align 8, !tbaa !32
  call void @llvm.lifetime.start.p0(i64 8, ptr %7) #4
  store ptr null, ptr %7, align 8, !tbaa !32
  call void @llvm.lifetime.start.p0(i64 8, ptr %8) #4
  store ptr null, ptr %8, align 8, !tbaa !15
  call void @llvm.lifetime.start.p0(i64 8, ptr %9) #4
  store ptr null, ptr %9, align 8, !tbaa !13
  %10 = load ptr, ptr %2, align 8, !tbaa !13
  %11 = call i32 @EVP_PKEY_get_bn_param(ptr noundef %10, ptr noundef @.str.74, ptr noundef %5)
  %12 = icmp ne i32 %11, 0
  br i1 %12, label %13, label %21

13:                                               ; preds = %1
  %14 = load ptr, ptr %2, align 8, !tbaa !13
  %15 = call i32 @EVP_PKEY_get_bn_param(ptr noundef %14, ptr noundef @.str.75, ptr noundef %6)
  %16 = icmp ne i32 %15, 0
  br i1 %16, label %17, label %21

17:                                               ; preds = %13
  %18 = load ptr, ptr %2, align 8, !tbaa !13
  %19 = call i32 @EVP_PKEY_get_bn_param(ptr noundef %18, ptr noundef @.str.76, ptr noundef %7)
  %20 = icmp ne i32 %19, 0
  br i1 %20, label %24, label %21

21:                                               ; preds = %17, %13, %1
  %22 = load ptr, ptr @bio_err, align 8, !tbaa !11
  %23 = call i32 (ptr, ptr, ...) @BIO_printf(ptr noundef %22, ptr noundef @.str.77)
  br label %68

24:                                               ; preds = %17
  %25 = call ptr @OSSL_PARAM_BLD_new()
  store ptr %25, ptr %3, align 8, !tbaa !28
  %26 = icmp eq ptr %25, null
  br i1 %26, label %46, label %27

27:                                               ; preds = %24
  %28 = load ptr, ptr %3, align 8, !tbaa !28
  %29 = load ptr, ptr %5, align 8, !tbaa !32
  %30 = call i32 @OSSL_PARAM_BLD_push_BN(ptr noundef %28, ptr noundef @.str.74, ptr noundef %29)
  %31 = icmp ne i32 %30, 0
  br i1 %31, label %32, label %46

32:                                               ; preds = %27
  %33 = load ptr, ptr %3, align 8, !tbaa !28
  %34 = load ptr, ptr %6, align 8, !tbaa !32
  %35 = call i32 @OSSL_PARAM_BLD_push_BN(ptr noundef %33, ptr noundef @.str.75, ptr noundef %34)
  %36 = icmp ne i32 %35, 0
  br i1 %36, label %37, label %46

37:                                               ; preds = %32
  %38 = load ptr, ptr %3, align 8, !tbaa !28
  %39 = load ptr, ptr %7, align 8, !tbaa !32
  %40 = call i32 @OSSL_PARAM_BLD_push_BN(ptr noundef %38, ptr noundef @.str.76, ptr noundef %39)
  %41 = icmp ne i32 %40, 0
  br i1 %41, label %42, label %46

42:                                               ; preds = %37
  %43 = load ptr, ptr %3, align 8, !tbaa !28
  %44 = call ptr @OSSL_PARAM_BLD_to_param(ptr noundef %43)
  store ptr %44, ptr %4, align 8, !tbaa !30
  %45 = icmp eq ptr %44, null
  br i1 %45, label %46, label %49

46:                                               ; preds = %42, %37, %32, %27, %24
  %47 = load ptr, ptr @bio_err, align 8, !tbaa !11
  %48 = call i32 (ptr, ptr, ...) @BIO_printf(ptr noundef %47, ptr noundef @.str.77)
  br label %68

49:                                               ; preds = %42
  %50 = call ptr @app_get0_libctx()
  %51 = call ptr @app_get0_propq()
  %52 = call ptr @EVP_PKEY_CTX_new_from_name(ptr noundef %50, ptr noundef @.str.66, ptr noundef %51)
  store ptr %52, ptr %8, align 8, !tbaa !15
  %53 = load ptr, ptr %8, align 8, !tbaa !15
  %54 = icmp eq ptr %53, null
  br i1 %54, label %64, label %55

55:                                               ; preds = %49
  %56 = load ptr, ptr %8, align 8, !tbaa !15
  %57 = call i32 @EVP_PKEY_fromdata_init(ptr noundef %56)
  %58 = icmp sle i32 %57, 0
  br i1 %58, label %64, label %59

59:                                               ; preds = %55
  %60 = load ptr, ptr %8, align 8, !tbaa !15
  %61 = load ptr, ptr %4, align 8, !tbaa !30
  %62 = call i32 @EVP_PKEY_fromdata(ptr noundef %60, ptr noundef %9, i32 noundef 132, ptr noundef %61)
  %63 = icmp sle i32 %62, 0
  br i1 %63, label %64, label %67

64:                                               ; preds = %59, %55, %49
  %65 = load ptr, ptr @bio_err, align 8, !tbaa !11
  %66 = call i32 (ptr, ptr, ...) @BIO_printf(ptr noundef %65, ptr noundef @.str.77)
  br label %68

67:                                               ; preds = %59
  br label %68

68:                                               ; preds = %67, %64, %46, %21
  %69 = load ptr, ptr %8, align 8, !tbaa !15
  call void @EVP_PKEY_CTX_free(ptr noundef %69)
  %70 = load ptr, ptr %4, align 8, !tbaa !30
  call void @OSSL_PARAM_free(ptr noundef %70)
  %71 = load ptr, ptr %3, align 8, !tbaa !28
  call void @OSSL_PARAM_BLD_free(ptr noundef %71)
  %72 = load ptr, ptr %5, align 8, !tbaa !32
  call void @BN_free(ptr noundef %72)
  %73 = load ptr, ptr %6, align 8, !tbaa !32
  call void @BN_free(ptr noundef %73)
  %74 = load ptr, ptr %7, align 8, !tbaa !32
  call void @BN_free(ptr noundef %74)
  %75 = load ptr, ptr %9, align 8, !tbaa !13
  call void @llvm.lifetime.end.p0(i64 8, ptr %9) #4
  call void @llvm.lifetime.end.p0(i64 8, ptr %8) #4
  call void @llvm.lifetime.end.p0(i64 8, ptr %7) #4
  call void @llvm.lifetime.end.p0(i64 8, ptr %6) #4
  call void @llvm.lifetime.end.p0(i64 8, ptr %5) #4
  call void @llvm.lifetime.end.p0(i64 8, ptr %4) #4
  call void @llvm.lifetime.end.p0(i64 8, ptr %3) #4
  ret ptr %75
}