; Function Attrs: nounwind uwtable
define internal fastcc ptr @dsa_to_dh(ptr noundef %0) unnamed_addr #0 {
  %2 = alloca ptr, align 8
  %3 = alloca ptr, align 8
  %4 = alloca ptr, align 8
  %5 = alloca ptr, align 8
  call void @llvm.lifetime.start.p0(i64 8, ptr nonnull %2) #3
  store ptr null, ptr %2, align 8, !tbaa !18
  call void @llvm.lifetime.start.p0(i64 8, ptr nonnull %3) #3
  store ptr null, ptr %3, align 8, !tbaa !18
  call void @llvm.lifetime.start.p0(i64 8, ptr nonnull %4) #3
  store ptr null, ptr %4, align 8, !tbaa !18
  call void @llvm.lifetime.start.p0(i64 8, ptr nonnull %5) #3
  store ptr null, ptr %5, align 8, !tbaa !4
  %6 = call i32 @EVP_PKEY_get_bn_param(ptr noundef %0, ptr noundef nonnull @.str.74, ptr noundef nonnull %2) #3
  %.not = icmp eq i32 %6, 0
  br i1 %.not, label %.sink.split, label %7

7:                                                ; preds = %1
  %8 = call i32 @EVP_PKEY_get_bn_param(ptr noundef %0, ptr noundef nonnull @.str.75, ptr noundef nonnull %3) #3
  %.not20 = icmp eq i32 %8, 0
  br i1 %.not20, label %.sink.split, label %9

9:                                                ; preds = %7
  %10 = call i32 @EVP_PKEY_get_bn_param(ptr noundef %0, ptr noundef nonnull @.str.76, ptr noundef nonnull %4) #3
  %.not21 = icmp eq i32 %10, 0
  br i1 %.not21, label %.sink.split, label %11

11:                                               ; preds = %9
  %12 = call ptr @OSSL_PARAM_BLD_new() #3
  %13 = icmp eq ptr %12, null
  br i1 %13, label %.sink.split, label %14

14:                                               ; preds = %11
  %15 = load ptr, ptr %2, align 8, !tbaa !18
  %16 = call i32 @OSSL_PARAM_BLD_push_BN(ptr noundef nonnull %12, ptr noundef nonnull @.str.74, ptr noundef %15) #3
  %.not22 = icmp eq i32 %16, 0
  br i1 %.not22, label %.sink.split, label %17

17:                                               ; preds = %14
  %18 = load ptr, ptr %3, align 8, !tbaa !18
  %19 = call i32 @OSSL_PARAM_BLD_push_BN(ptr noundef nonnull %12, ptr noundef nonnull @.str.75, ptr noundef %18) #3
  %.not23 = icmp eq i32 %19, 0
  br i1 %.not23, label %.sink.split, label %20

20:                                               ; preds = %17
  %21 = load ptr, ptr %4, align 8, !tbaa !18
  %22 = call i32 @OSSL_PARAM_BLD_push_BN(ptr noundef nonnull %12, ptr noundef nonnull @.str.76, ptr noundef %21) #3
  %.not24 = icmp eq i32 %22, 0
  br i1 %.not24, label %.sink.split, label %23

23:                                               ; preds = %20
  %24 = call ptr @OSSL_PARAM_BLD_to_param(ptr noundef nonnull %12) #3
  %25 = icmp eq ptr %24, null
  br i1 %25, label %.sink.split, label %26

26:                                               ; preds = %23
  %27 = call ptr @app_get0_libctx() #3
  %28 = call ptr @app_get0_propq() #3
  %29 = call ptr @EVP_PKEY_CTX_new_from_name(ptr noundef %27, ptr noundef nonnull @.str.66, ptr noundef %28) #3
  %30 = icmp eq ptr %29, null
  br i1 %30, label %.sink.split, label %31

31:                                               ; preds = %26
  %32 = call i32 @EVP_PKEY_fromdata_init(ptr noundef nonnull %29) #3
  %33 = icmp slt i32 %32, 1
  br i1 %33, label %.sink.split, label %34

34:                                               ; preds = %31
  %35 = call i32 @EVP_PKEY_fromdata(ptr noundef nonnull %29, ptr noundef nonnull %5, i32 noundef 132, ptr noundef nonnull %24) #3
  %36 = icmp slt i32 %35, 1
  br i1 %36, label %.sink.split, label %39

.sink.split:                                      ; preds = %26, %31, %34, %11, %14, %17, %20, %23, %1, %7, %9
  %.015.ph = phi ptr [ null, %9 ], [ null, %7 ], [ null, %1 ], [ %12, %23 ], [ %12, %20 ], [ %12, %17 ], [ %12, %14 ], [ %12, %11 ], [ %12, %34 ], [ %12, %31 ], [ %12, %26 ]
  %.014.ph = phi ptr [ null, %9 ], [ null, %7 ], [ null, %1 ], [ null, %23 ], [ null, %20 ], [ null, %17 ], [ null, %14 ], [ null, %11 ], [ %24, %34 ], [ %24, %31 ], [ %24, %26 ]
  %.0.ph = phi ptr [ null, %9 ], [ null, %7 ], [ null, %1 ], [ null, %23 ], [ null, %20 ], [ null, %17 ], [ null, %14 ], [ null, %11 ], [ %29, %34 ], [ %29, %31 ], [ %29, %26 ]
  %37 = load ptr, ptr @bio_err, align 8, !tbaa !13
  %38 = call i32 (ptr, ptr, ...) @BIO_printf(ptr noundef %37, ptr noundef nonnull @.str.77) #3
  br label %39

39:                                               ; preds = %.sink.split, %34
  %.015 = phi ptr [ %12, %34 ], [ %.015.ph, %.sink.split ]
  %.014 = phi ptr [ %24, %34 ], [ %.014.ph, %.sink.split ]
  %.0 = phi ptr [ %29, %34 ], [ %.0.ph, %.sink.split ]
  call void @EVP_PKEY_CTX_free(ptr noundef %.0) #3
  call void @OSSL_PARAM_free(ptr noundef %.014) #3
  call void @OSSL_PARAM_BLD_free(ptr noundef %.015) #3
  %40 = load ptr, ptr %2, align 8, !tbaa !18
  call void @BN_free(ptr noundef %40) #3
  %41 = load ptr, ptr %3, align 8, !tbaa !18
  call void @BN_free(ptr noundef %41) #3
  %42 = load ptr, ptr %4, align 8, !tbaa !18
  call void @BN_free(ptr noundef %42) #3
  %43 = load ptr, ptr %5, align 8, !tbaa !4
  call void @llvm.lifetime.end.p0(i64 8, ptr nonnull %5) #3
  call void @llvm.lifetime.end.p0(i64 8, ptr nonnull %4) #3
  call void @llvm.lifetime.end.p0(i64 8, ptr nonnull %3) #3
  call void @llvm.lifetime.end.p0(i64 8, ptr nonnull %2) #3
  ret ptr %43
}